; dlltool -D libFIExt.dll -z libFIExt.def --export-all-symbol libFIExt.dll
EXPORTS
;	libraw_memmgr::forget_ptr(void*)
	_ZN13libraw_memmgr10forget_ptrEPv @ 74
;	libraw_memmgr::free(void*)
	_ZN13libraw_memmgr4freeEPv @ 75
;	libraw_memmgr::calloc(unsigned int, unsigned int)
	_ZN13libraw_memmgr6callocEjj @ 76
;	libraw_memmgr::malloc(unsigned int)
	_ZN13libraw_memmgr6mallocEj @ 77
;	libraw_memmgr::cleanup()
	_ZN13libraw_memmgr7cleanupEv @ 78
;	libraw_memmgr::mem_ptr(void*)
	_ZN13libraw_memmgr7mem_ptrEPv @ 79
;	libraw_memmgr::libraw_memmgr()
	_ZN13libraw_memmgrC1Ev @ 80
;	LibRaw_constants::xyz_rgb
	_ZN16LibRaw_constants7xyz_rgbE @ 81 DATA
;	LibRaw_constants::d65_white
	_ZN16LibRaw_constants9d65_whiteE @ 82 DATA
;	LibRaw_file_datastream::subfile_open(char const*)
	_ZN22LibRaw_file_datastream12subfile_openEPKc @ 83
;	LibRaw_file_datastream::subfile_close()
	_ZN22LibRaw_file_datastream13subfile_closeEv @ 84
;	LibRaw_file_datastream::eof()
	_ZN22LibRaw_file_datastream3eofEv @ 85
;	LibRaw_file_datastream::gets(char*, int)
	_ZN22LibRaw_file_datastream4getsEPci @ 86
;	LibRaw_file_datastream::read(void*, unsigned int, unsigned int)
	_ZN22LibRaw_file_datastream4readEPvjj @ 87
;	LibRaw_file_datastream::seek(long, int)
	_ZN22LibRaw_file_datastream4seekEli @ 88
;	LibRaw_file_datastream::tell()
	_ZN22LibRaw_file_datastream4tellEv @ 89
;	LibRaw_file_datastream::fname()
	_ZN22LibRaw_file_datastream5fnameEv @ 90
;	LibRaw_file_datastream::valid()
	_ZN22LibRaw_file_datastream5validEv @ 91
;	LibRaw_file_datastream::get_char()
	_ZN22LibRaw_file_datastream8get_charEv @ 92
;	LibRaw_file_datastream::scanf_one(char const*, void*)
	_ZN22LibRaw_file_datastream9scanf_oneEPKcPv @ 93
;	LibRaw_file_datastream::LibRaw_file_datastream(char const*)
	_ZN22LibRaw_file_datastreamC1EPKc @ 94
;	LibRaw_file_datastream::~LibRaw_file_datastream()
	_ZN22LibRaw_file_datastreamD0Ev @ 95
;	LibRaw_file_datastream::~LibRaw_file_datastream()
	_ZN22LibRaw_file_datastreamD1Ev @ 96
;	LibRaw_buffer_datastream::eof()
	_ZN24LibRaw_buffer_datastream3eofEv @ 97
;	LibRaw_buffer_datastream::gets(char*, int)
	_ZN24LibRaw_buffer_datastream4getsEPci @ 98
;	LibRaw_buffer_datastream::read(void*, unsigned int, unsigned int)
	_ZN24LibRaw_buffer_datastream4readEPvjj @ 99
;	LibRaw_buffer_datastream::seek(long, int)
	_ZN24LibRaw_buffer_datastream4seekEli @ 100
;	LibRaw_buffer_datastream::tell()
	_ZN24LibRaw_buffer_datastream4tellEv @ 101
;	LibRaw_buffer_datastream::valid()
	_ZN24LibRaw_buffer_datastream5validEv @ 102
;	LibRaw_buffer_datastream::get_char()
	_ZN24LibRaw_buffer_datastream8get_charEv @ 103
;	LibRaw_buffer_datastream::scanf_one(char const*, void*)
	_ZN24LibRaw_buffer_datastream9scanf_oneEPKcPv @ 104
;	LibRaw_buffer_datastream::LibRaw_buffer_datastream(void*, unsigned int)
	_ZN24LibRaw_buffer_datastreamC1EPvj @ 105
;	LibRaw_buffer_datastream::~LibRaw_buffer_datastream()
	_ZN24LibRaw_buffer_datastreamD0Ev @ 106
;	LibRaw_buffer_datastream::~LibRaw_buffer_datastream()
	_ZN24LibRaw_buffer_datastreamD1Ev @ 107
;	LibRaw_abstract_datastream::subfile_open(char const*)
	_ZN26LibRaw_abstract_datastream12subfile_openEPKc @ 108
;	LibRaw_abstract_datastream::subfile_close()
	_ZN26LibRaw_abstract_datastream13subfile_closeEv @ 109
;	LibRaw_abstract_datastream::tempbuffer_open(void*, unsigned int)
	_ZN26LibRaw_abstract_datastream15tempbuffer_openEPvj @ 110
;	LibRaw_abstract_datastream::tempbuffer_close()
	_ZN26LibRaw_abstract_datastream16tempbuffer_closeEv @ 111
;	LibRaw_abstract_datastream::eof()
	_ZN26LibRaw_abstract_datastream3eofEv @ 112
;	LibRaw_abstract_datastream::gets(char*, int)
	_ZN26LibRaw_abstract_datastream4getsEPci @ 113
;	LibRaw_abstract_datastream::read(void*, unsigned int, unsigned int)
	_ZN26LibRaw_abstract_datastream4readEPvjj @ 114
;	LibRaw_abstract_datastream::seek(long, int)
	_ZN26LibRaw_abstract_datastream4seekEli @ 115
;	LibRaw_abstract_datastream::tell()
	_ZN26LibRaw_abstract_datastream4tellEv @ 116
;	LibRaw_abstract_datastream::fname()
	_ZN26LibRaw_abstract_datastream5fnameEv @ 117
;	LibRaw_abstract_datastream::valid()
	_ZN26LibRaw_abstract_datastream5validEv @ 118
;	LibRaw_abstract_datastream::get_char()
	_ZN26LibRaw_abstract_datastream8get_charEv @ 119
;	LibRaw_abstract_datastream::scanf_one(char const*, void*)
	_ZN26LibRaw_abstract_datastream9scanf_oneEPKcPv @ 120
;	LibRaw_abstract_datastream::LibRaw_abstract_datastream()
	_ZN26LibRaw_abstract_datastreamC2Ev @ 121
;	LibRaw_abstract_datastream::~LibRaw_abstract_datastream()
	_ZN26LibRaw_abstract_datastreamD0Ev @ 122
;	LibRaw_abstract_datastream::~LibRaw_abstract_datastream()
	_ZN26LibRaw_abstract_datastreamD1Ev @ 123
;	LibRaw_abstract_datastream::~LibRaw_abstract_datastream()
	_ZN26LibRaw_abstract_datastreamD2Ev @ 124
;	LibRaw::bad_pixels(char*)
	_ZN6LibRaw10bad_pixelsEPc @ 125
;	LibRaw::cameraList()
	_ZN6LibRaw10cameraListEv @ 126
;	LibRaw::canon_s2is()
	_ZN6LibRaw10canon_s2isEv @ 127
;	LibRaw::fill_holes(int)
	_ZN6LibRaw10fill_holesEi @ 128
;	LibRaw::flip_index(int, int)
	_ZN6LibRaw10flip_indexEii @ 129
;	LibRaw::jpeg_thumb(_iobuf*)
	_ZN6LibRaw10jpeg_thumbEP6_iobuf @ 130
;	LibRaw::ljpeg_diff(decode*)
	_ZN6LibRaw10ljpeg_diffEP6decode @ 131
;	LibRaw::minolta_z2()
	_ZN6LibRaw10minolta_z2Ev @ 132
;	LibRaw::nikon_3700()
	_ZN6LibRaw10nikon_3700Ev @ 133
;	LibRaw::nikon_e995()
	_ZN6LibRaw10nikon_e995Ev @ 134
;	LibRaw::parse_ciff(int, int)
	_ZN6LibRaw10parse_ciffEii @ 135
;	LibRaw::parse_cine()
	_ZN6LibRaw10parse_cineEv @ 136
;	LibRaw::parse_exif(int)
	_ZN6LibRaw10parse_exifEi @ 137
;	LibRaw::parse_fuji(int)
	_ZN6LibRaw10parse_fujiEi @ 138
;	LibRaw::parse_jpeg(int)
	_ZN6LibRaw10parse_jpegEi @ 139
;	LibRaw::parse_riff()
	_ZN6LibRaw10parse_riffEv @ 140
;	LibRaw::parse_smal(int, int)
	_ZN6LibRaw10parse_smalEii @ 141
;	LibRaw::parse_tiff(int)
	_ZN6LibRaw10parse_tiffEi @ 142
;	LibRaw::radc_token(int)
	_ZN6LibRaw10radc_tokenEi @ 143
;	LibRaw::romm_coeff(float (*) [3])
	_ZN6LibRaw10romm_coeffEPA3_f @ 144
;	LibRaw::adobe_coeff(char const*, char const*)
	_ZN6LibRaw11adobe_coeffEPKcS1_ @ 145
;	LibRaw::cameraCount()
	_ZN6LibRaw11cameraCountEv @ 146
;	LibRaw::canon_black(double*)
	_ZN6LibRaw11canon_blackEPd @ 147
;	LibRaw::fuji_rotate()
	_ZN6LibRaw11fuji_rotateEv @ 148
;	LibRaw::layer_thumb(_iobuf*)
	_ZN6LibRaw11layer_thumbEP6_iobuf @ 149
;	LibRaw::ljpeg_start(jhead*, int)
	_ZN6LibRaw11ljpeg_startEP5jheadi @ 150
;	LibRaw::nikon_e2100()
	_ZN6LibRaw11nikon_e2100Ev @ 151
;	LibRaw::open_buffer(void*, unsigned int)
	_ZN6LibRaw11open_bufferEPvj @ 152
;	LibRaw::pentax_tree()
	_ZN6LibRaw11pentax_treeEv @ 153
;	LibRaw::read_shorts(unsigned short*, int)
	_ZN6LibRaw11read_shortsEPti @ 154
;	LibRaw::strprogress(LibRaw_progress)
	_ZN6LibRaw11strprogressE15LibRaw_progress @ 155
;	LibRaw::init_decoder()
	_ZN6LibRaw12init_decoderEv @ 156
;	LibRaw::int_to_float(int)
	_ZN6LibRaw12int_to_floatEi @ 157
;	LibRaw::linear_table(unsigned int)
	_ZN6LibRaw12linear_tableEj @ 158
;	LibRaw::make_decoder(unsigned char const*, int)
	_ZN6LibRaw12make_decoderEPKhi @ 159
;	LibRaw::parse_rollei()
	_ZN6LibRaw12parse_rolleiEv @ 160
;	LibRaw::rollei_thumb(_iobuf*)
	_ZN6LibRaw12rollei_thumbEP6_iobuf @ 161
;	LibRaw::scale_colors()
	_ZN6LibRaw12scale_colorsEv @ 162
;	LibRaw::simple_coeff(int)
	_ZN6LibRaw12simple_coeffEi @ 163
;	LibRaw::sony_decrypt(unsigned int*, int, int, int)
	_ZN6LibRaw12sony_decryptEPjiii @ 164
;	LibRaw::unpack_thumb()
	_ZN6LibRaw12unpack_thumbEv @ 165
;	LibRaw::cam_xyz_coeff(double (*) [3])
	_ZN6LibRaw13cam_xyz_coeffEPA3_d @ 166
;	LibRaw::dcraw_process()
	_ZN6LibRaw13dcraw_processEv @ 167
;	LibRaw::fuji_load_raw()
	_ZN6LibRaw13fuji_load_rawEv @ 168
;	LibRaw::get_timestamp(int)
	_ZN6LibRaw13get_timestampEi @ 169
;	LibRaw::hat_transform(float*, float*, int, int, int)
	_ZN6LibRaw13hat_transformEPfS0_iii @ 170
;	LibRaw::median_filter()
	_ZN6LibRaw13median_filterEv @ 171
;	LibRaw::parse_minolta(int)
	_ZN6LibRaw13parse_minoltaEi @ 172
;	LibRaw::pseudoinverse(double (*) [3], double (*) [3], int)
	_ZN6LibRaw13pseudoinverseEPA3_dS1_i @ 173
;	LibRaw::remove_zeroes()
	_ZN6LibRaw13remove_zeroesEv @ 174
;	LibRaw::sony_load_raw()
	_ZN6LibRaw13sony_load_rawEv @ 175
;	LibRaw::versionNumber()
	_ZN6LibRaw13versionNumberEv @ 176
;	LibRaw::convert_to_rgb()
	_ZN6LibRaw14convert_to_rgbEv @ 177
;	LibRaw::nokia_load_raw()
	_ZN6LibRaw14nokia_load_rawEv @ 178
;	LibRaw::parse_sinar_ia()
	_ZN6LibRaw14parse_sinar_iaEv @ 179
;	LibRaw::parse_tiff_ifd(int)
	_ZN6LibRaw14parse_tiff_ifdEi @ 180
;	LibRaw::write_ppm_tiff(_iobuf*)
	_ZN6LibRaw14write_ppm_tiffEP6_iobuf @ 181
;	LibRaw::ahd_interpolate()
	_ZN6LibRaw15ahd_interpolateEv @ 182
;	LibRaw::canon_600_coeff()
	_ZN6LibRaw15canon_600_coeffEv @ 183
;	LibRaw::canon_600_color(int*, int)
	_ZN6LibRaw15canon_600_colorEPii @ 184
;	LibRaw::ciff_block_1030()
	_ZN6LibRaw15ciff_block_1030Ev @ 185
;	LibRaw::crw_init_tables(unsigned int)
	_ZN6LibRaw15crw_init_tablesEj @ 186
;	LibRaw::lin_interpolate()
	_ZN6LibRaw15lin_interpolateEv @ 187
;	LibRaw::open_datastream(LibRaw_abstract_datastream*)
	_ZN6LibRaw15open_datastreamEP26LibRaw_abstract_datastream @ 188
;	LibRaw::parse_kodak_ifd(int)
	_ZN6LibRaw15parse_kodak_ifdEi @ 189
;	LibRaw::parse_makernote(int, int)
	_ZN6LibRaw15parse_makernoteEii @ 190
;	LibRaw::parse_phase_one(int)
	_ZN6LibRaw15parse_phase_oneEi @ 191
;	LibRaw::ppg_interpolate()
	_ZN6LibRaw15ppg_interpolateEv @ 192
;	LibRaw::pre_interpolate()
	_ZN6LibRaw15pre_interpolateEv @ 193
;	LibRaw::rollei_load_raw()
	_ZN6LibRaw15rollei_load_rawEv @ 194
;	LibRaw::vng_interpolate()
	_ZN6LibRaw15vng_interpolateEv @ 195
;	LibRaw::wavelet_denoise()
	_ZN6LibRaw15wavelet_denoiseEv @ 196
;	LibRaw::adobe_copy_pixel(int, int, unsigned short**)
	_ZN6LibRaw16adobe_copy_pixelEiiPPt @ 197
;	LibRaw::blend_highlights()
	_ZN6LibRaw16blend_highlightsEv @ 198
;	LibRaw::guess_byte_order(int)
	_ZN6LibRaw16guess_byte_orderEi @ 199
;	LibRaw::make_decoder_int(int const*, int)
	_ZN6LibRaw16make_decoder_intEPKii @ 200
;	LibRaw::parse_thumb_note(int, unsigned int, unsigned int)
	_ZN6LibRaw16parse_thumb_noteEijj @ 201
;	LibRaw::smal_v6_load_raw()
	_ZN6LibRaw16smal_v6_load_rawEv @ 202
;	LibRaw::smal_v9_load_raw()
	_ZN6LibRaw16smal_v9_load_rawEv @ 203
;	LibRaw::canon_600_auto_wb()
	_ZN6LibRaw17canon_600_auto_wbEv @ 204
;	LibRaw::canon_a5_load_raw()
	_ZN6LibRaw17canon_a5_load_rawEv @ 205
;	LibRaw::canon_has_lowbits()
	_ZN6LibRaw17canon_has_lowbitsEv @ 206
;	LibRaw::jpeg_thumb_writer(_iobuf*, char*, int)
	_ZN6LibRaw17jpeg_thumb_writerEP6_iobufPci @ 207
;	LibRaw::leaf_hdr_load_raw()
	_ZN6LibRaw17leaf_hdr_load_rawEv @ 208
;	LibRaw::phase_one_correct()
	_ZN6LibRaw17phase_one_correctEv @ 209
;	LibRaw::sony_arw_load_raw()
	_ZN6LibRaw17sony_arw_load_rawEv @ 210
;	LibRaw::unpacked_load_raw()
	_ZN6LibRaw17unpacked_load_rawEv @ 211
;	LibRaw::border_interpolate(int)
	_ZN6LibRaw18border_interpolateEi @ 212
;	LibRaw::canon_600_fixed_wb(int)
	_ZN6LibRaw18canon_600_fixed_wbEi @ 213
;	LibRaw::canon_600_load_raw()
	_ZN6LibRaw18canon_600_load_rawEv @ 214
;	LibRaw::dcraw_thumb_writer(char const*)
	_ZN6LibRaw18dcraw_thumb_writerEPKc @ 215
;	LibRaw::eight_bit_load_raw()
	_ZN6LibRaw18eight_bit_load_rawEv @ 216
;	LibRaw::kodak_262_load_raw()
	_ZN6LibRaw18kodak_262_load_rawEv @ 217
;	LibRaw::kodak_65000_decode(short*, int)
	_ZN6LibRaw18kodak_65000_decodeEPsi @ 218
;	LibRaw::kodak_rgb_load_raw()
	_ZN6LibRaw18kodak_rgb_load_rawEv @ 219
;	LibRaw::kodak_thumb_loader()
	_ZN6LibRaw18kodak_thumb_loaderEv @ 220
;	LibRaw::packed_12_load_raw()
	_ZN6LibRaw18packed_12_load_rawEv @ 221
;	LibRaw::panasonic_load_raw()
	_ZN6LibRaw18panasonic_load_rawEv @ 222
;	LibRaw::phase_one_load_raw()
	_ZN6LibRaw18phase_one_load_rawEv @ 223
;	LibRaw::recover_highlights()
	_ZN6LibRaw18recover_highlightsEv @ 224
;	LibRaw::sony_arw2_load_raw()
	_ZN6LibRaw18sony_arw2_load_rawEv @ 225
;	LibRaw::canon_sraw_load_raw()
	_ZN6LibRaw19canon_sraw_load_rawEv @ 226
;	LibRaw::hasselblad_load_raw()
	_ZN6LibRaw19hasselblad_load_rawEv @ 227
;	LibRaw::kodak_jpeg_load_raw()
	_ZN6LibRaw19kodak_jpeg_load_rawEv @ 228
;	LibRaw::kodak_radc_load_raw()
	_ZN6LibRaw19kodak_radc_load_rawEv @ 229
;	LibRaw::kodak_yrgb_load_raw()
	_ZN6LibRaw19kodak_yrgb_load_rawEv @ 230
;	LibRaw::nikon_e900_load_raw()
	_ZN6LibRaw19nikon_e900_load_rawEv @ 231
;	LibRaw::nikon_is_compressed()
	_ZN6LibRaw19nikon_is_compressedEv @ 232
;	LibRaw::parse_external_jpeg()
	_ZN6LibRaw19parse_external_jpegEv @ 233
;	LibRaw::pentax_k10_load_raw()
	_ZN6LibRaw19pentax_k10_load_rawEv @ 234
;	LibRaw::smal_decode_segment(unsigned int (*) [2], int)
	_ZN6LibRaw19smal_decode_segmentEPA2_ji @ 235
;	LibRaw::dcraw_make_mem_image(int*)
	_ZN6LibRaw20dcraw_make_mem_imageEPi @ 236
;	LibRaw::dcraw_make_mem_thumb(int*)
	_ZN6LibRaw20dcraw_make_mem_thumbEPi @ 237
;	LibRaw::imacon_full_load_raw()
	_ZN6LibRaw20imacon_full_load_rawEv @ 238
;	LibRaw::kodak_65000_load_raw()
	_ZN6LibRaw20kodak_65000_load_rawEv @ 239
;	LibRaw::kodak_dc120_load_raw()
	_ZN6LibRaw20kodak_dc120_load_rawEv @ 240
;	LibRaw::kodak_thumb_load_raw()
	_ZN6LibRaw20kodak_thumb_load_rawEv @ 241
;	LibRaw::kodak_ycbcr_load_raw()
	_ZN6LibRaw20kodak_ycbcr_load_rawEv @ 242
;	LibRaw::phase_one_flat_field(int, int)
	_ZN6LibRaw20phase_one_flat_fieldEii @ 243
;	LibRaw::phase_one_load_raw_c()
	_ZN6LibRaw20phase_one_load_raw_cEv @ 244
;	LibRaw::set_memerror_handler(void (*)(void*, char const*, char const*), void*)
	_ZN6LibRaw20set_memerror_handlerEPFvPvPKcS2_ES0_ @ 245
;	LibRaw::set_progress_handler(int (*)(void*, LibRaw_progress, int, int), void*)
	_ZN6LibRaw20set_progress_handlerEPFiPv15LibRaw_progressiiES0_ @ 246
;	LibRaw::sinar_4shot_load_raw()
	_ZN6LibRaw20sinar_4shot_load_rawEv @ 247
;	LibRaw::unpack_function_name()
	_ZN6LibRaw20unpack_function_nameEv @ 248
;	LibRaw::adobe_dng_load_raw_lj()
	_ZN6LibRaw21adobe_dng_load_raw_ljEv @ 249
;	LibRaw::adobe_dng_load_raw_nc()
	_ZN6LibRaw21adobe_dng_load_raw_ncEv @ 250
;	LibRaw::casio_qv5700_load_raw()
	_ZN6LibRaw21casio_qv5700_load_rawEv @ 251
;	LibRaw::dcraw_ppm_tiff_writer(char const*)
	_ZN6LibRaw21dcraw_ppm_tiff_writerEPKc @ 252
;	LibRaw::olympus_e300_load_raw()
	_ZN6LibRaw21olympus_e300_load_rawEv @ 253
;	LibRaw::olympus_e410_load_raw()
	_ZN6LibRaw21olympus_e410_load_rawEv @ 254
;	LibRaw::set_dataerror_handler(void (*)(void*, char const*, int), void*)
	_ZN6LibRaw21set_dataerror_handlerEPFvPvPKciES0_ @ 255
;	LibRaw::adjust_sizes_info_only()
	_ZN6LibRaw22adjust_sizes_info_onlyEv @ 256
;	LibRaw::lossless_jpeg_load_raw()
	_ZN6LibRaw22lossless_jpeg_load_rawEv @ 257
;	LibRaw::minolta_rd175_load_raw()
	_ZN6LibRaw22minolta_rd175_load_rawEv @ 258
;	LibRaw::quicktake_100_load_raw()
	_ZN6LibRaw22quicktake_100_load_rawEv @ 259
;	LibRaw::canon_compressed_load_raw()
	_ZN6LibRaw25canon_compressed_load_rawEv @ 260
;	LibRaw::nikon_compressed_load_raw()
	_ZN6LibRaw25nikon_compressed_load_rawEv @ 261
;	LibRaw::FC(int, int)
	_ZN6LibRaw2FCEii @ 262
;	LibRaw::fc(int, int)
	_ZN6LibRaw2fcEii @ 263
;	LibRaw::dcraw_document_mode_processing()
	_ZN6LibRaw30dcraw_document_mode_processingEv @ 264
;	LibRaw::free(void*)
	_ZN6LibRaw4freeEPv @ 265
;	LibRaw::get2()
	_ZN6LibRaw4get2Ev @ 266
;	LibRaw::get4()
	_ZN6LibRaw4get4Ev @ 267
;	LibRaw::bayer(unsigned int, unsigned int)
	_ZN6LibRaw5bayerEjj @ 268
;	LibRaw::sget2(unsigned char*)
	_ZN6LibRaw5sget2EPh @ 269
;	LibRaw::sget4(unsigned char*)
	_ZN6LibRaw5sget4EPh @ 270
;	LibRaw::calloc(unsigned int, unsigned int)
	_ZN6LibRaw6callocEjj @ 271
;	LibRaw::derror()
	_ZN6LibRaw6derrorEv @ 272
;	LibRaw::getint(int)
	_ZN6LibRaw6getintEi @ 273
;	LibRaw::malloc(unsigned int)
	_ZN6LibRaw6mallocEj @ 274
;	LibRaw::merror(void*, char const*)
	_ZN6LibRaw6merrorEPvPKc @ 275
;	LibRaw::unpack()
	_ZN6LibRaw6unpackEv @ 276
;	LibRaw::getbits(int)
	_ZN6LibRaw7getbitsEi @ 277
;	LibRaw::getreal(int)
	_ZN6LibRaw7getrealEi @ 278
;	LibRaw::median4(int*)
	_ZN6LibRaw7median4EPi @ 279
;	LibRaw::recycle()
	_ZN6LibRaw7recycleEv @ 280
;	LibRaw::stretch()
	_ZN6LibRaw7stretchEv @ 281
;	LibRaw::version()
	_ZN6LibRaw7versionEv @ 282
;	LibRaw::identify()
	_ZN6LibRaw8identifyEv @ 283
;	LibRaw::ph1_bits(int)
	_ZN6LibRaw8ph1_bitsEi @ 284
;	LibRaw::subtract(char*)
	_ZN6LibRaw8subtractEPc @ 285
;	LibRaw::tiff_get(unsigned int, unsigned int*, unsigned int*, unsigned int*, unsigned int*)
	_ZN6LibRaw8tiff_getEjPjS0_S0_S0_ @ 286
;	LibRaw::tiff_set(unsigned short*, unsigned short, unsigned short, int, int)
	_ZN6LibRaw8tiff_setEPtttii @ 287
;	LibRaw::gamma_lut(unsigned short*)
	_ZN6LibRaw9gamma_lutEPt @ 288
;	LibRaw::ljpeg_row(int, jhead*)
	_ZN6LibRaw9ljpeg_rowEiP5jhead @ 289
;	LibRaw::open_file(char const*)
	_ZN6LibRaw9open_fileEPKc @ 290
;	LibRaw::pana_bits(int)
	_ZN6LibRaw9pana_bitsEi @ 291
;	LibRaw::parse_gps(int)
	_ZN6LibRaw9parse_gpsEi @ 292
;	LibRaw::parse_mos(int)
	_ZN6LibRaw9parse_mosEi @ 293
;	LibRaw::ppm_thumb(_iobuf*)
	_ZN6LibRaw9ppm_thumbEP6_iobuf @ 294
;	LibRaw::tiff_head(tiff_hdr*, int)
	_ZN6LibRaw9tiff_headEP8tiff_hdri @ 295
;	LibRaw::LibRaw(unsigned int)
	_ZN6LibRawC1Ej @ 296
;	LibRaw::LibRaw(unsigned int)
	_ZN6LibRawC2Ej @ 297
;	LibRaw::~LibRaw()
	_ZN6LibRawD1Ev @ 298
;	typeinfo name for LibRaw_exceptions
	_ZTS17LibRaw_exceptions @ 419 DATA
;	typeinfo name for LibRaw_file_datastream
	_ZTS22LibRaw_file_datastream @ 420 DATA
;	typeinfo name for LibRaw_buffer_datastream
	_ZTS24LibRaw_buffer_datastream @ 421 DATA
;	typeinfo name for LibRaw_abstract_datastream
	_ZTS26LibRaw_abstract_datastream @ 422 DATA
;	typeinfo name for __cxxabiv1::__enum_type_info
	_ZTSN10__cxxabiv116__enum_type_infoE @ 423 DATA
;	typeinfo name for __cxxabiv1::__array_type_info
	_ZTSN10__cxxabiv117__array_type_infoE @ 424 DATA
;	typeinfo name for __cxxabiv1::__class_type_info
	_ZTSN10__cxxabiv117__class_type_infoE @ 425 DATA
;	typeinfo name for __cxxabiv1::__pbase_type_info
	_ZTSN10__cxxabiv117__pbase_type_infoE @ 426 DATA
;	typeinfo name for __cxxabiv1::__pointer_type_info
	_ZTSN10__cxxabiv119__pointer_type_infoE @ 427 DATA
;	typeinfo name for __cxxabiv1::__function_type_info
	_ZTSN10__cxxabiv120__function_type_infoE @ 428 DATA
;	typeinfo name for __cxxabiv1::__si_class_type_info
	_ZTSN10__cxxabiv120__si_class_type_infoE @ 429 DATA
;	typeinfo name for __cxxabiv1::__vmi_class_type_info
	_ZTSN10__cxxabiv121__vmi_class_type_infoE @ 430 DATA
;	typeinfo name for __cxxabiv1::__fundamental_type_info
	_ZTSN10__cxxabiv123__fundamental_type_infoE @ 431 DATA
;	typeinfo name for __cxxabiv1::__pointer_to_member_type_info
	_ZTSN10__cxxabiv129__pointer_to_member_type_infoE @ 432 DATA
;	vtable for LibRaw_file_datastream
	_ZTV22LibRaw_file_datastream @ 490 DATA
;	vtable for LibRaw_buffer_datastream
	_ZTV24LibRaw_buffer_datastream @ 491 DATA
;	vtable for LibRaw_abstract_datastream
	_ZTV26LibRaw_abstract_datastream @ 492 DATA
